; Function Attrs: mustprogress nofree norecurse nosync nounwind willreturn memory(argmem: readwrite) uwtable
define void @stbrp_setup_allow_out_of_mem(ptr noundef captures(none) initializes((8, 12)) %0, i32 noundef %1) local_unnamed_addr #19 {
  %.not = icmp eq i32 %1, 0
  br i1 %.not, label %3, label %10

3:                                                ; preds = %2
  %4 = load i32, ptr %0, align 8, !tbaa !379
  %5 = getelementptr inbounds nuw i8, ptr %0, i64 20
  %6 = load i32, ptr %5, align 4, !tbaa !380
  %7 = add i32 %4, -1
  %8 = add i32 %7, %6
  %9 = sdiv i32 %8, %6
  br label %10

10:                                               ; preds = %2, %3
  %.sink = phi i32 [ %9, %3 ], [ 1, %2 ]
  %11 = getelementptr inbounds nuw i8, ptr %0, i64 8
  store i32 %.sink, ptr %11, align 8, !tbaa !381
  ret void
}